; ModuleID = '40/1572.c'
source_filename = "40/1572.c"
target datalayout = "e-m:e-p270:32:32-p271:32:32-p272:64:64-i64:64-f80:128-n8:16:32:64-S128"
target triple = "x86_64-pc-linux-gnu"

@.str = private unnamed_addr constant [16 x i8] c"%lf%lf%lf%lf%lf\00", align 1
@.str.1 = private unnamed_addr constant [6 x i8] c"%.4lf\00", align 1
@.str.2 = private unnamed_addr constant [14 x i8] c"Invalid input\00", align 1

; Function Attrs: noinline nounwind uwtable
define dso_local void @main() #0 {
  %1 = alloca double, align 8
  %2 = alloca double, align 8
  %3 = alloca double, align 8
  %4 = alloca double, align 8
  %5 = alloca double, align 8
  %6 = alloca double, align 8
  %7 = call i32 (i8*, ...) @__isoc99_scanf(i8* getelementptr inbounds ([16 x i8], [16 x i8]* @.str, i64 0, i64 0), double* %1, double* %2, double* %3, double* %4, double* %5)
  %8 = load double, double* %5, align 8
  %9 = fdiv double %8, 3.600000e+02
  %10 = fmul double %9, 0x400921FB4D12D84A
  store double %10, double* %5, align 8
  %11 = load double, double* %1, align 8
  %12 = load double, double* %2, align 8
  %13 = load double, double* %3, align 8
  %14 = load double, double* %4, align 8
  %15 = load double, double* %5, align 8
  %16 = call double @f(double %11, double %12, double %13, double %14, double %15)
  store double %16, double* %6, align 8
  %17 = load double, double* %6, align 8
  %18 = fcmp ogt double %17, 0.000000e+00
  br i1 %18, label %19, label %23

19:                                               ; preds = %0
  %20 = load double, double* %6, align 8
  %21 = call double @sqrt(double %20) #3
  %22 = call i32 (i8*, ...) @printf(i8* getelementptr inbounds ([6 x i8], [6 x i8]* @.str.1, i64 0, i64 0), double %21)
  br label %25

23:                                               ; preds = %0
  %24 = call i32 (i8*, ...) @printf(i8* getelementptr inbounds ([14 x i8], [14 x i8]* @.str.2, i64 0, i64 0))
  br label %25

25:                                               ; preds = %23, %19
  ret void
}

declare dso_local i32 @__isoc99_scanf(i8*, ...) #1

; Function Attrs: noinline nounwind uwtable
define dso_local double @f(double %0, double %1, double %2, double %3, double %4) #0 {
  %6 = alloca double, align 8
  %7 = alloca double, align 8
  %8 = alloca double, align 8
  %9 = alloca double, align 8
  %10 = alloca double, align 8
  %11 = alloca double, align 8
  store double %0, double* %6, align 8
  store double %1, double* %7, align 8
  store double %2, double* %8, align 8
  store double %3, double* %9, align 8
  store double %4, double* %10, align 8
  %12 = load double, double* %6, align 8
  %13 = load double, double* %7, align 8
  %14 = fadd double %12, %13
  %15 = load double, double* %8, align 8
  %16 = fadd double %14, %15
  %17 = load double, double* %9, align 8
  %18 = fadd double %16, %17
  %19 = fdiv double %18, 2.000000e+00
  store double %19, double* %11, align 8
  %20 = load double, double* %11, align 8
  %21 = load double, double* %6, align 8
  %22 = fsub double %20, %21
  %23 = load double, double* %11, align 8
  %24 = load double, double* %7, align 8
  %25 = fsub double %23, %24
  %26 = fmul double %22, %25
  %27 = load double, double* %11, align 8
  %28 = load double, double* %8, align 8
  %29 = fsub double %27, %28
  %30 = fmul double %26, %29
  %31 = load double, double* %11, align 8
  %32 = load double, double* %9, align 8
  %33 = fsub double %31, %32
  %34 = fmul double %30, %33
  %35 = load double, double* %6, align 8
  %36 = load double, double* %7, align 8
  %37 = fmul double %35, %36
  %38 = load double, double* %8, align 8
  %39 = fmul double %37, %38
  %40 = load double, double* %9, align 8
  %41 = fmul double %39, %40
  %42 = load double, double* %10, align 8
  %43 = call double @cos(double %42) #3
  %44 = fmul double %41, %43
  %45 = load double, double* %10, align 8
  %46 = call double @cos(double %45) #3
  %47 = fmul double %44, %46
  %48 = fsub double %34, %47
  ret double %48
}

declare dso_local i32 @printf(i8*, ...) #1

; Function Attrs: nounwind
declare dso_local double @sqrt(double) #2

; Function Attrs: nounwind
declare dso_local double @cos(double) #2


!llvm.module.flags = !{!0}
!llvm.ident = !{!1}

!0 = !{i32 1, !"wchar_size", i32 4}
!1 = !{!"clang version 10.0.0-4ubuntu1 "}
